target datalayout = "e-m:e-p270:32:32-p271:32:32-p272:64:64-i64:64-i128:128-f80:128-n8:16:32:64-S128"
target triple = "x86_64-pc-linux-gnu"

%struct.sat_solver2_t = type { i32, i32, i32, i32, i32, double, double, i32, i32, i32, i32, ptr, ptr, i32, i32, i32, i32, i32, i32, i32, i32, i32, i32, i32, %struct.Sat_Mem_t_, ptr, %struct.veci_t, %struct.veci_t, i32, i32, i32, ptr, ptr, ptr, ptr, ptr, ptr, ptr, ptr, %struct.veci_t, %struct.veci_t, %struct.veci_t, %struct.veci_t, %struct.veci_t, %struct.veci_t, %struct.veci_t, %struct.veci_t, %struct.veci_t, %struct.veci_t, ptr, %struct.veci_t, i32, i32, ptr, double, ptr, i32, %struct.stats_t, i64, i64, i64 }
%struct.Sat_Mem_t_ = type { [2 x i32], [2 x i32], [2 x i32], [2 x i32], i32, i32, i32, i32, ptr }
%struct.veci_t = type { i32, i32, ptr }
%struct.stats_t = type { i32, i32, i32, i64, i64, i64, i64, i64, i64, i64 }

; Function Attrs: nounwind uwtable
define internal void @Sat_MemWriteLimit(ptr noundef %0, i32 noundef %1) #0 {
  %3 = alloca ptr, align 8
  %4 = alloca i32, align 4
  store ptr %0, ptr %3, align 8
  store i32 %1, ptr %4, align 4
  %5 = load i32, ptr %4, align 4
  %6 = load ptr, ptr %3, align 8
  %7 = getelementptr inbounds i32, ptr %6, i64 0
  store i32 %5, ptr %7, align 4
  ret void
}

; Function Attrs: nounwind uwtable
define internal void @Sat_MemAlloc_(ptr noundef %0, i32 noundef %1) #0 {
  %3 = alloca ptr, align 8
  %4 = alloca i32, align 4
  store ptr %0, ptr %3, align 8
  store i32 %1, ptr %4, align 4
  %5 = load ptr, ptr %3, align 8
  call void @llvm.memset.p0.i64(ptr align 8 %5, i8 0, i64 56, i1 false)
  %6 = load i32, ptr %4, align 4
  %7 = load ptr, ptr %3, align 8
  %8 = getelementptr inbounds %struct.Sat_Mem_t_, ptr %7, i32 0, i32 4
  store i32 %6, ptr %8, align 8
  %9 = load i32, ptr %4, align 4
  %10 = shl i32 1, %9
  %11 = load ptr, ptr %3, align 8
  %12 = getelementptr inbounds %struct.Sat_Mem_t_, ptr %11, i32 0, i32 6
  store i32 %10, ptr %12, align 8
  %13 = load i32, ptr %4, align 4
  %14 = shl i32 1, %13
  %15 = sub nsw i32 %14, 1
  %16 = load ptr, ptr %3, align 8
  %17 = getelementptr inbounds %struct.Sat_Mem_t_, ptr %16, i32 0, i32 5
  store i32 %15, ptr %17, align 4
  %18 = load ptr, ptr %3, align 8
  %19 = getelementptr inbounds %struct.Sat_Mem_t_, ptr %18, i32 0, i32 7
  store i32 256, ptr %19, align 4
  %20 = load ptr, ptr %3, align 8
  %21 = getelementptr inbounds %struct.Sat_Mem_t_, ptr %20, i32 0, i32 7
  %22 = load i32, ptr %21, align 4
  %23 = sext i32 %22 to i64
  %24 = call noalias ptr @calloc(i64 noundef %23, i64 noundef 8) #13
  %25 = load ptr, ptr %3, align 8
  %26 = getelementptr inbounds %struct.Sat_Mem_t_, ptr %25, i32 0, i32 8
  store ptr %24, ptr %26, align 8
  %27 = load ptr, ptr %3, align 8
  %28 = getelementptr inbounds %struct.Sat_Mem_t_, ptr %27, i32 0, i32 4
  %29 = load i32, ptr %28, align 8
  %30 = zext i32 %29 to i64
  %31 = shl i64 1, %30
  %32 = trunc i64 %31 to i32
  %33 = sext i32 %32 to i64
  %34 = mul i64 4, %33
  %35 = call noalias ptr @malloc(i64 noundef %34) #12
  %36 = load ptr, ptr %3, align 8
  %37 = getelementptr inbounds %struct.Sat_Mem_t_, ptr %36, i32 0, i32 8
  %38 = load ptr, ptr %37, align 8
  %39 = getelementptr inbounds ptr, ptr %38, i64 0
  store ptr %35, ptr %39, align 8
  %40 = load ptr, ptr %3, align 8
  %41 = getelementptr inbounds %struct.Sat_Mem_t_, ptr %40, i32 0, i32 4
  %42 = load i32, ptr %41, align 8
  %43 = zext i32 %42 to i64
  %44 = shl i64 1, %43
  %45 = trunc i64 %44 to i32
  %46 = sext i32 %45 to i64
  %47 = mul i64 4, %46
  %48 = call noalias ptr @malloc(i64 noundef %47) #12
  %49 = load ptr, ptr %3, align 8
  %50 = getelementptr inbounds %struct.Sat_Mem_t_, ptr %49, i32 0, i32 8
  %51 = load ptr, ptr %50, align 8
  %52 = getelementptr inbounds ptr, ptr %51, i64 1
  store ptr %48, ptr %52, align 8
  %53 = load ptr, ptr %3, align 8
  %54 = getelementptr inbounds %struct.Sat_Mem_t_, ptr %53, i32 0, i32 3
  %55 = getelementptr inbounds [2 x i32], ptr %54, i64 0, i64 0
  store i32 0, ptr %55, align 8
  %56 = load ptr, ptr %3, align 8
  %57 = getelementptr inbounds %struct.Sat_Mem_t_, ptr %56, i32 0, i32 3
  %58 = getelementptr inbounds [2 x i32], ptr %57, i64 0, i64 1
  store i32 1, ptr %58, align 4
  %59 = load ptr, ptr %3, align 8
  %60 = getelementptr inbounds %struct.Sat_Mem_t_, ptr %59, i32 0, i32 8
  %61 = load ptr, ptr %60, align 8
  %62 = getelementptr inbounds ptr, ptr %61, i64 0
  %63 = load ptr, ptr %62, align 8
  call void @Sat_MemWriteLimit(ptr noundef %63, i32 noundef 2)
  %64 = load ptr, ptr %3, align 8
  %65 = getelementptr inbounds %struct.Sat_Mem_t_, ptr %64, i32 0, i32 8
  %66 = load ptr, ptr %65, align 8
  %67 = getelementptr inbounds ptr, ptr %66, i64 1
  %68 = load ptr, ptr %67, align 8
  call void @Sat_MemWriteLimit(ptr noundef %68, i32 noundef 2)
  ret void
}

; Function Attrs: nounwind uwtable
define internal void @veci_new(ptr noundef %0) #0 {
  %2 = alloca ptr, align 8
  store ptr %0, ptr %2, align 8
  %3 = load ptr, ptr %2, align 8
  %4 = getelementptr inbounds %struct.veci_t, ptr %3, i32 0, i32 0
  store i32 4, ptr %4, align 8
  %5 = load ptr, ptr %2, align 8
  %6 = getelementptr inbounds %struct.veci_t, ptr %5, i32 0, i32 1
  store i32 0, ptr %6, align 4
  %7 = load ptr, ptr %2, align 8
  %8 = getelementptr inbounds %struct.veci_t, ptr %7, i32 0, i32 0
  %9 = load i32, ptr %8, align 8
  %10 = sext i32 %9 to i64
  %11 = mul i64 4, %10
  %12 = mul i64 1, %11
  %13 = call noalias ptr @malloc(i64 noundef %12) #12
  %14 = load ptr, ptr %2, align 8
  %15 = getelementptr inbounds %struct.veci_t, ptr %14, i32 0, i32 2
  store ptr %13, ptr %15, align 8
  ret void
}

; Function Attrs: nounwind uwtable
define ptr @sat_solver2_new() #0 {
  %1 = alloca ptr, align 8
  %2 = call noalias ptr @calloc(i64 noundef 616, i64 noundef 1) #13
  store ptr %2, ptr %1, align 8
  %3 = load ptr, ptr %1, align 8
  %4 = getelementptr inbounds %struct.sat_solver2_t, ptr %3, i32 0, i32 8
  store i32 32, ptr %4, align 4
  %5 = load ptr, ptr %1, align 8
  %6 = getelementptr inbounds %struct.sat_solver2_t, ptr %5, i32 0, i32 10
  store i32 2048, ptr %6, align 4
  %7 = load ptr, ptr %1, align 8
  %8 = getelementptr inbounds %struct.sat_solver2_t, ptr %7, i32 0, i32 5
  store double 0x4195D9C3F4000000, ptr %8, align 8
  %9 = load ptr, ptr %1, align 8
  %10 = getelementptr inbounds %struct.sat_solver2_t, ptr %9, i32 0, i32 22
  store i32 1, ptr %10, align 4
  %11 = load ptr, ptr %1, align 8
  %12 = getelementptr inbounds %struct.sat_solver2_t, ptr %11, i32 0, i32 21
  store i32 1, ptr %12, align 8
  %13 = load ptr, ptr %1, align 8
  %14 = getelementptr inbounds %struct.sat_solver2_t, ptr %13, i32 0, i32 20
  store i32 0, ptr %14, align 4
  %15 = load ptr, ptr %1, align 8
  %16 = getelementptr inbounds %struct.sat_solver2_t, ptr %15, i32 0, i32 23
  store i32 0, ptr %16, align 8
  %17 = load ptr, ptr %1, align 8
  %18 = getelementptr inbounds %struct.sat_solver2_t, ptr %17, i32 0, i32 16
  store i32 10000, ptr %18, align 4
  %19 = load ptr, ptr %1, align 8
  %20 = getelementptr inbounds %struct.sat_solver2_t, ptr %19, i32 0, i32 17
  store i32 1000, ptr %20, align 8
  %21 = load ptr, ptr %1, align 8
  %22 = getelementptr inbounds %struct.sat_solver2_t, ptr %21, i32 0, i32 18
  store i32 50, ptr %22, align 4
  %23 = load ptr, ptr %1, align 8
  %24 = getelementptr inbounds %struct.sat_solver2_t, ptr %23, i32 0, i32 16
  %25 = load i32, ptr %24, align 4
  %26 = load ptr, ptr %1, align 8
  %27 = getelementptr inbounds %struct.sat_solver2_t, ptr %26, i32 0, i32 15
  store i32 %25, ptr %27, align 8
  %28 = load ptr, ptr %1, align 8
  %29 = getelementptr inbounds %struct.sat_solver2_t, ptr %28, i32 0, i32 41
  call void @veci_new(ptr noundef %29)
  %30 = load ptr, ptr %1, align 8
  %31 = getelementptr inbounds %struct.sat_solver2_t, ptr %30, i32 0, i32 42
  call void @veci_new(ptr noundef %31)
  %32 = load ptr, ptr %1, align 8
  %33 = getelementptr inbounds %struct.sat_solver2_t, ptr %32, i32 0, i32 39
  call void @veci_new(ptr noundef %33)
  %34 = load ptr, ptr %1, align 8
  %35 = getelementptr inbounds %struct.sat_solver2_t, ptr %34, i32 0, i32 40
  call void @veci_new(ptr noundef %35)
  %36 = load ptr, ptr %1, align 8
  %37 = getelementptr inbounds %struct.sat_solver2_t, ptr %36, i32 0, i32 43
  call void @veci_new(ptr noundef %37)
  %38 = load ptr, ptr %1, align 8
  %39 = getelementptr inbounds %struct.sat_solver2_t, ptr %38, i32 0, i32 50
  call void @veci_new(ptr noundef %39)
  %40 = load ptr, ptr %1, align 8
  %41 = getelementptr inbounds %struct.sat_solver2_t, ptr %40, i32 0, i32 44
  call void @veci_new(ptr noundef %41)
  %42 = load ptr, ptr %1, align 8
  %43 = getelementptr inbounds %struct.sat_solver2_t, ptr %42, i32 0, i32 45
  call void @veci_new(ptr noundef %43)
  %44 = load ptr, ptr %1, align 8
  %45 = getelementptr inbounds %struct.sat_solver2_t, ptr %44, i32 0, i32 46
  call void @veci_new(ptr noundef %45)
  %46 = load ptr, ptr %1, align 8
  %47 = getelementptr inbounds %struct.sat_solver2_t, ptr %46, i32 0, i32 47
  call void @veci_new(ptr noundef %47)
  %48 = load ptr, ptr %1, align 8
  %49 = getelementptr inbounds %struct.sat_solver2_t, ptr %48, i32 0, i32 24
  call void @Sat_MemAlloc_(ptr noundef %49, i32 noundef 14)
  %50 = load ptr, ptr %1, align 8
  %51 = getelementptr inbounds %struct.sat_solver2_t, ptr %50, i32 0, i32 26
  call void @veci_new(ptr noundef %51)
  %52 = load ptr, ptr %1, align 8
  %53 = getelementptr inbounds %struct.sat_solver2_t, ptr %52, i32 0, i32 27
  call void @veci_new(ptr noundef %53)
  %54 = load ptr, ptr %1, align 8
  %55 = getelementptr inbounds %struct.sat_solver2_t, ptr %54, i32 0, i32 56
  store i32 -1, ptr %55, align 8
  %56 = load ptr, ptr %1, align 8
  %57 = getelementptr inbounds %struct.sat_solver2_t, ptr %56, i32 0, i32 51
  store i32 -1, ptr %57, align 8
  %58 = load ptr, ptr %1, align 8
  %59 = getelementptr inbounds %struct.sat_solver2_t, ptr %58, i32 0, i32 52
  store i32 -1, ptr %59, align 4
  %60 = load ptr, ptr %1, align 8
  %61 = getelementptr inbounds %struct.sat_solver2_t, ptr %60, i32 0, i32 28
  store i32 0, ptr %61, align 8
  %62 = load ptr, ptr %1, align 8
  %63 = getelementptr inbounds %struct.sat_solver2_t, ptr %62, i32 0, i32 29
  store i32 0, ptr %63, align 4
  %64 = load ptr, ptr %1, align 8
  %65 = getelementptr inbounds %struct.sat_solver2_t, ptr %64, i32 0, i32 30
  store i32 1, ptr %65, align 8
  %66 = load ptr, ptr %1, align 8
  ret ptr %66
}